target datalayout = "e-m:e-p270:32:32-p271:32:32-p272:64:64-i64:64-i128:128-f80:128-n8:16:32:64-S128"
target triple = "x86_64-pc-linux-gnu"

%struct.H5O_shared_t = type { i32, ptr, i32, %union.anon }
%union.anon = type { %struct.H5O_mesg_loc_t }
%struct.H5O_mesg_loc_t = type { i32, i64 }
%struct.H5A_t = type { %struct.H5O_shared_t, %struct.H5O_loc_t, i8, %struct.H5G_name_t, ptr }
%struct.H5O_loc_t = type { ptr, i64, i8 }
%struct.H5G_name_t = type { ptr, ptr, i32 }
%struct.H5A_shared_t = type { i8, ptr, i32, ptr, i64, ptr, i64, ptr, i64, i32, i32 }
%struct.H5O_copy_t = type { i8, i8, i8, i8, i8, i8, i8, ptr, i32, i32, ptr, ptr, i8, ptr, ptr, ptr, ptr, ptr, i64 }

@H5O_init_g = external global i8, align 1
@H5_libterm_g = external global i8, align 1
@.str.1 = private unnamed_addr constant [101 x i8] c"generated/home/dtcxzyw/WorkSpace/Projects/compilers/llvm-opt-benchmark/bench/hdf5/hdf5/src/H5Oattr.c\00", align 1
@H5E_OHDR_g = external global i64, align 8
@H5O_attr_ver_bounds = external constant [7 x i32], align 16
@__func__.H5O__attr_pre_copy_file = private unnamed_addr constant [24 x i8] c"H5O__attr_pre_copy_file\00", align 1
@H5E_BADRANGE_g = external global i64, align 8
@.str.61 = private unnamed_addr constant [40 x i8] c"attribute message version out of bounds\00", align 1

; Function Attrs: nounwind uwtable
define internal i32 @H5O__attr_pre_copy_file(ptr noundef %0, ptr noundef %1, ptr noundef %2, ptr noundef %3, ptr noundef %4) #1 {
  %6 = alloca ptr, align 8
  %7 = alloca ptr, align 8
  %8 = alloca ptr, align 8
  %9 = alloca ptr, align 8
  %10 = alloca ptr, align 8
  %11 = alloca ptr, align 8
  %12 = alloca i32, align 4
  %13 = alloca i8, align 1
  store ptr %0, ptr %6, align 8, !tbaa !3
  store ptr %1, ptr %7, align 8, !tbaa !18
  store ptr %2, ptr %8, align 8, !tbaa !29
  store ptr %3, ptr %9, align 8, !tbaa !31
  store ptr %4, ptr %10, align 8, !tbaa !18
  call void @llvm.lifetime.start.p0(i64 8, ptr %11) #9
  %14 = load ptr, ptr %7, align 8, !tbaa !18
  store ptr %14, ptr %11, align 8, !tbaa !27
  call void @llvm.lifetime.start.p0(i64 4, ptr %12) #9
  store i32 0, ptr %12, align 4, !tbaa !10
  call void @llvm.lifetime.start.p0(i64 1, ptr %13) #9
  store i8 0, ptr %13, align 1, !tbaa !19
  %15 = load i8, ptr @H5O_init_g, align 1, !tbaa !19, !range !21, !noundef !22
  %16 = trunc i8 %15 to i1
  br i1 %16, label %21, label %17

17:                                               ; preds = %5
  %18 = load i8, ptr @H5_libterm_g, align 1, !tbaa !19, !range !21, !noundef !22
  %19 = trunc i8 %18 to i1
  %20 = xor i1 %19, true
  br label %21

21:                                               ; preds = %17, %5
  %22 = phi i1 [ true, %5 ], [ %20, %17 ]
  %23 = xor i1 %22, true
  %24 = xor i1 %23, true
  %25 = zext i1 %24 to i32
  %26 = sext i32 %25 to i64
  %27 = call i64 @llvm.expect.i64(i64 %26, i64 1)
  %28 = icmp ne i64 %27, 0
  br i1 %28, label %29, label %72

29:                                               ; preds = %21
  %30 = load ptr, ptr %11, align 8, !tbaa !27
  %31 = getelementptr inbounds nuw %struct.H5A_t, ptr %30, i32 0, i32 4
  %32 = load ptr, ptr %31, align 8, !tbaa !33
  %33 = getelementptr inbounds nuw %struct.H5A_shared_t, ptr %32, i32 0, i32 0
  %34 = load i8, ptr %33, align 8, !tbaa !39
  %35 = zext i8 %34 to i32
  %36 = load ptr, ptr %9, align 8, !tbaa !31
  %37 = getelementptr inbounds nuw %struct.H5O_copy_t, ptr %36, i32 0, i32 14
  %38 = load ptr, ptr %37, align 8, !tbaa !43
  %39 = call i32 @H5F_get_high_bound(ptr noundef %38)
  %40 = sext i32 %39 to i64
  %41 = getelementptr inbounds [7 x i32], ptr @H5O_attr_ver_bounds, i64 0, i64 %40
  %42 = load i32, ptr %41, align 4, !tbaa !10
  %43 = icmp ugt i32 %35, %42
  br i1 %43, label %44, label %63

44:                                               ; preds = %29
  br label %45

45:                                               ; preds = %44
  br label %46

46:                                               ; preds = %45
  br label %47

47:                                               ; preds = %46
  %48 = load i64, ptr @H5E_OHDR_g, align 8, !tbaa !14
  %49 = load i64, ptr @H5E_BADRANGE_g, align 8, !tbaa !14
  %50 = call i32 (ptr, ptr, i32, i64, i64, ptr, ...) @H5E_printf_stack(ptr noundef @.str.1, ptr noundef @__func__.H5O__attr_pre_copy_file, i32 noundef 650, i64 noundef %48, i64 noundef %49, ptr noundef @.str.61)
  br label %51

51:                                               ; preds = %47
  br label %52

52:                                               ; preds = %51
  store i8 1, ptr %13, align 1, !tbaa !19
  %53 = load i8, ptr %13, align 1, !tbaa !19, !range !21, !noundef !22
  %54 = trunc i8 %53 to i1
  %55 = zext i1 %54 to i8
  store i8 %55, ptr %13, align 1, !tbaa !19
  br label %56

56:                                               ; preds = %52
  br label %57

57:                                               ; preds = %56
  br label %58

58:                                               ; preds = %57
  store i32 -1, ptr %12, align 4, !tbaa !10
  br label %71

59:                                               ; No predecessors!
  br label %60

60:                                               ; preds = %59
  br label %61

61:                                               ; preds = %60
  br label %62

62:                                               ; preds = %61
  br label %63

63:                                               ; preds = %62, %29
  %64 = load ptr, ptr %9, align 8, !tbaa !31
  %65 = getelementptr inbounds nuw %struct.H5O_copy_t, ptr %64, i32 0, i32 4
  %66 = load i8, ptr %65, align 4, !tbaa !47, !range !21, !noundef !22
  %67 = trunc i8 %66 to i1
  br i1 %67, label %68, label %70

68:                                               ; preds = %63
  %69 = load ptr, ptr %8, align 8, !tbaa !29
  store i8 1, ptr %69, align 1, !tbaa !19
  br label %70

70:                                               ; preds = %68, %63
  br label %71

71:                                               ; preds = %70, %58
  br label %72

72:                                               ; preds = %71, %21
  %73 = load i32, ptr %12, align 4, !tbaa !10
  call void @llvm.lifetime.end.p0(i64 1, ptr %13) #9
  call void @llvm.lifetime.end.p0(i64 4, ptr %12) #9
  call void @llvm.lifetime.end.p0(i64 8, ptr %11) #9
  ret i32 %73
}