; Function Attrs: nounwind uwtable
define internal range(i32 -1, 1) i32 @H5O__attr_pre_copy_file(ptr readnone captures(none) %0, ptr noundef readonly captures(none) %1, ptr noundef writeonly captures(none) %2, ptr noundef readonly captures(none) %3, ptr readnone captures(none) %4) #1 {
  %6 = load i8, ptr @H5O_init_g, align 1, !tbaa !3, !range !7, !noundef !8
  %7 = trunc nuw i8 %6 to i1
  %8 = load i8, ptr @H5_libterm_g, align 1, !range !7
  %9 = trunc nuw i8 %8 to i1
  %10 = xor i1 %9, true
  %11 = select i1 %7, i1 true, i1 %10
  br i1 %11, label %12, label %33, !prof !9

12:                                               ; preds = %5
  %13 = getelementptr inbounds nuw i8, ptr %1, i64 96
  %14 = load ptr, ptr %13, align 8, !tbaa !14
  %15 = load i8, ptr %14, align 8, !tbaa !24
  %16 = zext i8 %15 to i32
  %17 = getelementptr inbounds nuw i8, ptr %3, i64 56
  %18 = load ptr, ptr %17, align 8, !tbaa !44
  %19 = tail call i32 @H5F_get_high_bound(ptr noundef %18) #12
  %20 = sext i32 %19 to i64
  %21 = getelementptr inbounds [7 x i32], ptr @H5O_attr_ver_bounds, i64 0, i64 %20
  %22 = load i32, ptr %21, align 4, !tbaa !12
  %23 = icmp ult i32 %22, %16
  br i1 %23, label %24, label %28

24:                                               ; preds = %12
  %25 = load i64, ptr @H5E_OHDR_g, align 8, !tbaa !10
  %26 = load i64, ptr @H5E_BADRANGE_g, align 8, !tbaa !10
  %27 = tail call i32 (ptr, ptr, i32, i64, i64, ptr, ...) @H5E_printf_stack(ptr noundef nonnull @.str.1, ptr noundef nonnull @__func__.H5O__attr_pre_copy_file, i32 noundef 650, i64 noundef %25, i64 noundef %26, ptr noundef nonnull @.str.61) #12
  br label %33

28:                                               ; preds = %12
  %29 = getelementptr inbounds nuw i8, ptr %3, i64 4
  %30 = load i8, ptr %29, align 4, !tbaa !49, !range !7, !noundef !8
  %31 = trunc nuw i8 %30 to i1
  br i1 %31, label %32, label %33

32:                                               ; preds = %28
  store i8 1, ptr %2, align 1, !tbaa !3
  br label %33

33:                                               ; preds = %24, %32, %28, %5
  %.0 = phi i32 [ -1, %24 ], [ 0, %32 ], [ 0, %28 ], [ 0, %5 ]
  ret i32 %.0
}